Certificate:
    Data:
        Version: 3 (0x2)
        Serial Number: 1 (0x1)
        Signature Algorithm: md5WithRSAEncryption
        Issuer: C=UK, ST=London, L=London, O=Develop4 Technologies Ltd., OU=Certification Services Division/emailAddress=certification@develop4.co.uk
        Validity
            Not Before: Aug 15 21:20:27 2014 GMT
            Not After : Aug 15 21:20:27 2015 GMT
        Subject: CN=Test User/emailAddress=test01@develop4.co.uk
        Subject Public Key Info:
            Public Key Algorithm: rsaEncryption
            RSA Public Key: (2048 bit)
                Modulus (2048 bit):
                    00:c6:4d:15:37:3a:1e:4d:2f:a9:57:c1:76:e2:d3:
                    37:25:15:71:9d:9b:dd:cd:42:c2:92:06:6b:b4:38:
                    29:1e:53:11:41:b7:d0:29:6c:09:f3:db:3d:de:ee:
                    ca:d6:11:19:17:40:b1:f3:5c:bf:6c:e9:e4:98:fb:
                    4f:4d:a7:92:b0:34:6f:5f:2c:ee:52:0e:d0:b1:5c:
                    8f:ea:72:0d:70:d7:64:a0:4e:8d:a0:2e:f4:5b:77:
                    53:e5:95:f2:c9:d1:1d:55:d4:cc:9c:41:70:e2:e3:
                    1b:8c:0e:d3:3b:b9:0a:04:65:82:f8:62:22:c9:51:
                    29:2a:09:c9:df:d2:c8:ed:6e:24:72:48:75:65:c3:
                    46:f9:6d:3d:4d:91:44:1d:3e:55:d9:19:49:46:91:
                    01:52:b9:d8:55:9f:82:54:77:de:03:67:3b:24:03:
                    01:18:2d:8d:1e:6a:60:2b:2b:4d:36:8b:b8:a4:c9:
                    1a:d1:1b:75:69:89:0c:98:55:82:ef:8a:a1:0c:c7:
                    50:be:4d:bb:d9:e1:43:b5:6b:87:49:c2:3f:0b:52:
                    05:45:77:46:c3:93:8f:49:28:3b:cb:da:aa:86:11:
                    9a:35:08:7c:bd:99:53:f9:dd:e6:a7:26:4f:16:bf:
                    55:22:ef:a7:8d:f0:0c:f3:2f:30:f7:d0:49:fc:24:
                    37:3b
                Exponent: 65537 (0x10001)
        X509v3 extensions:
            X509v3 Subject Alternative Name: 
                email:test01@develop4.co.uk
            X509v3 Basic Constraints: critical
                CA:FALSE
            X509v3 Authority Key Identifier: 
                keyid:BB:89:F2:89:E3:CD:BC:3E:6F:0B:41:82:D0:A6:82:D0:03:74:96:5C

            X509v3 Extended Key Usage: 
                TLS Web Client Authentication, E-mail Protection
    Signature Algorithm: md5WithRSAEncryption
        a4:2d:ea:eb:83:a8:26:8f:99:d5:0f:ab:31:d6:8b:64:e9:88:
        d8:29:3c:38:9d:61:f2:8b:f1:ee:3a:5f:43:2a:de:68:e4:cf:
        ed:92:ef:06:ab:3e:17:e8:1d:1e:5c:bb:70:64:e8:d7:94:5a:
        48:6c:31:13:68:a5:2e:48:5a:81:56:d5:9a:1d:2a:d6:94:68:
        42:56:df:e3:51:04:f8:78:06:2c:a7:c9:8c:35:2b:5f:23:9b:
        5a:f6:6c:ee:77:1d:61:08:00:fa:81:86:a7:d9:38:9c:68:23:
        d2:82:f0:b1:73:5a:0c:30:7c:a5:aa:f3:33:49:ee:88:8f:cc:
        04:2c:fa:f8:1c:31:c8:5a:7b:c9:0b:88:95:af:3b:11:ed:6f:
        7a:62:33:7e:c6:13:58:8b:96:33:b3:95:53:e1:19:80:0d:f7:
        2a:f7:cb:42:76:53:8e:a6:80:fe:5a:d5:04:e5:8f:a9:65:e8:
        04:a1:b4:08:19:1c:40:54:af:0b:77:8c:96:70:0b:46:c6:19:
        36:03:5f:fb:af:b5:96:6a:e8:98:25:28:8b:4c:d0:85:d4:29:
        ca:eb:8b:41:e0:f6:ba:b2:81:51:31:88:53:45:d2:7b:1c:aa:
        9e:09:af:65:0a:fc:86:be:79:b8:93:60:9a:20:88:3a:d2:38:
        c1:f1:f0:d6
-----BEGIN CERTIFICATE-----
MIID0zCCArugAwIBAgIBATANBgkqhkiG9w0BAQQFADCBqzELMAkGA1UEBhMCVUsx
DzANBgNVBAgTBkxvbmRvbjEPMA0GA1UEBxMGTG9uZG9uMSMwIQYDVQQKExpEZXZl
bG9wNCBUZWNobm9sb2dpZXMgTHRkLjEoMCYGA1UECxMfQ2VydGlmaWNhdGlvbiBT
ZXJ2aWNlcyBEaXZpc2lvbjErMCkGCSqGSIb3DQEJARYcY2VydGlmaWNhdGlvbkBk
ZXZlbG9wNC5jby51azAeFw0xNDA4MTUyMTIwMjdaFw0xNTA4MTUyMTIwMjdaMDox
EjAQBgNVBAMTCVRlc3QgVXNlcjEkMCIGCSqGSIb3DQEJARYVdGVzdDAxQGRldmVs
b3A0LmNvLnVrMIIBIjANBgkqhkiG9w0BAQEFAAOCAQ8AMIIBCgKCAQEAxk0VNzoe
TS+pV8F24tM3JRVxnZvdzULCkgZrtDgpHlMRQbfQKWwJ89s93u7K1hEZF0Cx81y/
bOnkmPtPTaeSsDRvXyzuUg7QsVyP6nINcNdkoE6NoC70W3dT5ZXyydEdVdTMnEFw
4uMbjA7TO7kKBGWC+GIiyVEpKgnJ39LI7W4kckh1ZcNG+W09TZFEHT5V2RlJRpEB
UrnYVZ+CVHfeA2c7JAMBGC2NHmpgKytNNou4pMka0Rt1aYkMmFWC74qhDMdQvk27
2eFDtWuHScI/C1IFRXdGw5OPSSg7y9qqhhGaNQh8vZlT+d3mpyZPFr9VIu+njfAM
8y8w99BJ/CQ3OwIDAQABo3IwcDAgBgNVHREEGTAXgRV0ZXN0MDFAZGV2ZWxvcDQu
Y28udWswDAYDVR0TAQH/BAIwADAfBgNVHSMEGDAWgBS7ifKJ4828Pm8LQYLQpoLQ
A3SWXDAdBgNVHSUEFjAUBggrBgEFBQcDAgYIKwYBBQUHAwQwDQYJKoZIhvcNAQEE
BQADggEBAKQt6uuDqCaPmdUPqzHWi2TpiNgpPDidYfKL8e46X0Mq3mjkz+2S7war
PhfoHR5cu3Bk6NeUWkhsMRNopS5IWoFW1ZodKtaUaEJW3+NRBPh4BiynyYw1K18j
m1r2bO53HWEIAPqBhqfZOJxoI9KC8LFzWgwwfKWq8zNJ7oiPzAQs+vgcMchae8kL
iJWvOxHtb3piM37GE1iLljOzlVPhGYAN9yr3y0J2U46mgP5a1QTlj6ll6AShtAgZ
HEBUrwt3jJZwC0bGGTYDX/uvtZZq6JglKItM0IXUKcrri0Hg9rqygVExiFNF0nsc
qp4Jr2UK/Ia+ebiTYJogiDrSOMHx8NY=
-----END CERTIFICATE-----
